target datalayout = "e-m:e-p270:32:32-p271:32:32-p272:64:64-i64:64-i128:128-f80:128-n8:16:32:64-S128"
target triple = "x86_64-pc-linux-gnu"

%struct.SDL_Palette = type { i32, ptr, i32, i32 }
%struct.SDL_Color = type { i8, i8, i8, i8 }

; Function Attrs: nounwind uwtable
define hidden zeroext i1 @SDL_SetPaletteColors_REAL(ptr noundef %0, ptr noundef %1, i32 noundef %2, i32 noundef %3) #0 {
  %5 = alloca i1, align 1
  %6 = alloca ptr, align 8
  %7 = alloca ptr, align 8
  %8 = alloca i32, align 4
  %9 = alloca i32, align 4
  %10 = alloca i8, align 1
  %11 = alloca i32, align 4
  store ptr %0, ptr %6, align 8
  store ptr %1, ptr %7, align 8
  store i32 %2, ptr %8, align 4
  store i32 %3, ptr %9, align 4
  call void @llvm.lifetime.start.p0(i64 1, ptr %10) #7
  store i8 1, ptr %10, align 1
  %12 = load ptr, ptr %6, align 8
  %13 = icmp ne ptr %12, null
  br i1 %13, label %15, label %14

14:                                               ; preds = %4
  store i1 false, ptr %5, align 1
  store i32 1, ptr %11, align 4
  br label %64

15:                                               ; preds = %4
  %16 = load i32, ptr %9, align 4
  %17 = load ptr, ptr %6, align 8
  %18 = getelementptr inbounds nuw %struct.SDL_Palette, ptr %17, i32 0, i32 0
  %19 = load i32, ptr %18, align 8
  %20 = load i32, ptr %8, align 4
  %21 = sub nsw i32 %19, %20
  %22 = icmp sgt i32 %16, %21
  br i1 %22, label %23, label %29

23:                                               ; preds = %15
  %24 = load ptr, ptr %6, align 8
  %25 = getelementptr inbounds nuw %struct.SDL_Palette, ptr %24, i32 0, i32 0
  %26 = load i32, ptr %25, align 8
  %27 = load i32, ptr %8, align 4
  %28 = sub nsw i32 %26, %27
  store i32 %28, ptr %9, align 4
  store i8 0, ptr %10, align 1
  br label %29

29:                                               ; preds = %23, %15
  %30 = load ptr, ptr %7, align 8
  %31 = load ptr, ptr %6, align 8
  %32 = getelementptr inbounds nuw %struct.SDL_Palette, ptr %31, i32 0, i32 1
  %33 = load ptr, ptr %32, align 8
  %34 = load i32, ptr %8, align 4
  %35 = sext i32 %34 to i64
  %36 = getelementptr inbounds %struct.SDL_Color, ptr %33, i64 %35
  %37 = icmp ne ptr %30, %36
  br i1 %37, label %38, label %49

38:                                               ; preds = %29
  %39 = load ptr, ptr %6, align 8
  %40 = getelementptr inbounds nuw %struct.SDL_Palette, ptr %39, i32 0, i32 1
  %41 = load ptr, ptr %40, align 8
  %42 = load i32, ptr %8, align 4
  %43 = sext i32 %42 to i64
  %44 = getelementptr inbounds %struct.SDL_Color, ptr %41, i64 %43
  %45 = load ptr, ptr %7, align 8
  %46 = load i32, ptr %9, align 4
  %47 = sext i32 %46 to i64
  %48 = mul i64 %47, 4
  call void @llvm.memcpy.p0.p0.i64(ptr align 1 %44, ptr align 1 %45, i64 %48, i1 false)
  br label %49

49:                                               ; preds = %38, %29
  %50 = load ptr, ptr %6, align 8
  %51 = getelementptr inbounds nuw %struct.SDL_Palette, ptr %50, i32 0, i32 2
  %52 = load i32, ptr %51, align 8
  %53 = add i32 %52, 1
  store i32 %53, ptr %51, align 8
  %54 = load ptr, ptr %6, align 8
  %55 = getelementptr inbounds nuw %struct.SDL_Palette, ptr %54, i32 0, i32 2
  %56 = load i32, ptr %55, align 8
  %57 = icmp ne i32 %56, 0
  br i1 %57, label %61, label %58

58:                                               ; preds = %49
  %59 = load ptr, ptr %6, align 8
  %60 = getelementptr inbounds nuw %struct.SDL_Palette, ptr %59, i32 0, i32 2
  store i32 1, ptr %60, align 8
  br label %61

61:                                               ; preds = %58, %49
  %62 = load i8, ptr %10, align 1, !range !12, !noundef !13
  %63 = trunc i8 %62 to i1
  store i1 %63, ptr %5, align 1
  store i32 1, ptr %11, align 4
  br label %64

64:                                               ; preds = %61, %14
  call void @llvm.lifetime.end.p0(i64 1, ptr %10) #7
  %65 = load i1, ptr %5, align 1
  ret i1 %65
}