; Function Attrs: mustprogress nofree norecurse nosync nounwind willreturn memory(readwrite, inaccessiblemem: none) uwtable
define hidden zeroext i1 @SDL_SetPaletteColors_REAL(ptr noundef captures(address_is_null) %0, ptr noundef readonly captures(address) %1, i32 noundef %2, i32 noundef %3) local_unnamed_addr #7 {
  %.not = icmp eq ptr %0, null
  br i1 %.not, label %20, label %5

5:                                                ; preds = %4
  %6 = load i32, ptr %0, align 8
  %7 = sub nsw i32 %6, %2
  %8 = icmp sle i32 %3, %7
  %9 = getelementptr inbounds nuw i8, ptr %0, i64 8
  %10 = load ptr, ptr %9, align 8
  %11 = sext i32 %2 to i64
  %12 = getelementptr inbounds %struct.SDL_Color, ptr %10, i64 %11
  %.not24 = icmp eq ptr %1, %12
  br i1 %.not24, label %16, label %13

13:                                               ; preds = %5
  %spec.select = tail call i32 @llvm.smin.i32(i32 %3, i32 %7)
  %14 = sext i32 %spec.select to i64
  %15 = shl nsw i64 %14, 2
  tail call void @llvm.memcpy.p0.p0.i64(ptr align 1 %12, ptr align 1 %1, i64 %15, i1 false)
  br label %16

16:                                               ; preds = %13, %5
  %17 = getelementptr inbounds nuw i8, ptr %0, i64 16
  %18 = load i32, ptr %17, align 8
  %19 = add i32 %18, 1
  %spec.select26 = tail call i32 @llvm.umax.i32(i32 %19, i32 1)
  store i32 %spec.select26, ptr %17, align 8
  br label %20

20:                                               ; preds = %4, %16
  %.018 = phi i1 [ %8, %16 ], [ false, %4 ]
  ret i1 %.018
}